; ModuleID = '13/868.cpp'
source_filename = "13/868.cpp"
target datalayout = "e-m:e-p270:32:32-p271:32:32-p272:64:64-i64:64-f80:128-n8:16:32:64-S128"
target triple = "x86_64-pc-linux-gnu"

%"class.std::ios_base::Init" = type { i8 }
%"class.std::basic_istream" = type { i32 (...)**, i64, %"class.std::basic_ios" }
%"class.std::basic_ios" = type { %"class.std::ios_base", %"class.std::basic_ostream"*, i8, i8, %"class.std::basic_streambuf"*, %"class.std::ctype"*, %"class.std::num_put"*, %"class.std::num_get"* }
%"class.std::ios_base" = type { i32 (...)**, i64, i64, i32, i32, i32, %"struct.std::ios_base::_Callback_list"*, %"struct.std::ios_base::_Words", [8 x %"struct.std::ios_base::_Words"], i32, %"struct.std::ios_base::_Words"*, %"class.std::locale" }
%"struct.std::ios_base::_Callback_list" = type { %"struct.std::ios_base::_Callback_list"*, void (i32, %"class.std::ios_base"*, i32)*, i32, i32 }
%"struct.std::ios_base::_Words" = type { i8*, i64 }
%"class.std::locale" = type { %"class.std::locale::_Impl"* }
%"class.std::locale::_Impl" = type { i32, %"class.std::locale::facet"**, i64, %"class.std::locale::facet"**, i8** }
%"class.std::locale::facet" = type <{ i32 (...)**, i32, [4 x i8] }>
%"class.std::basic_ostream" = type { i32 (...)**, %"class.std::basic_ios" }
%"class.std::basic_streambuf" = type { i32 (...)**, i8*, i8*, i8*, i8*, i8*, i8*, %"class.std::locale" }
%"class.std::ctype" = type <{ %"class.std::locale::facet.base", [4 x i8], %struct.__locale_struct*, i8, [7 x i8], i32*, i32*, i16*, i8, [256 x i8], [256 x i8], i8, [6 x i8] }>
%"class.std::locale::facet.base" = type <{ i32 (...)**, i32 }>
%struct.__locale_struct = type { [13 x %struct.__locale_data*], i16*, i32*, i32*, [13 x i8*] }
%struct.__locale_data = type opaque
%"class.std::num_put" = type { %"class.std::locale::facet.base", [4 x i8] }
%"class.std::num_get" = type { %"class.std::locale::facet.base", [4 x i8] }

@_ZStL8__ioinit = internal global %"class.std::ios_base::Init" zeroinitializer, align 1
@__dso_handle = external hidden global i8
@_ZSt3cin = external dso_local global %"class.std::basic_istream", align 8
@_ZSt4cout = external dso_local global %"class.std::basic_ostream", align 8
@.str = private unnamed_addr constant [2 x i8] c" \00", align 1
@llvm.global_ctors = appending global [1 x { i32, void ()*, i8* }] [{ i32, void ()*, i8* } { i32 65535, void ()* @_GLOBAL__sub_I_868.cpp, i8* null }]

; Function Attrs: noinline uwtable
define internal void @__cxx_global_var_init() #0 section ".text.startup" {
  call void @_ZNSt8ios_base4InitC1Ev(%"class.std::ios_base::Init"* @_ZStL8__ioinit)
  %1 = call i32 @__cxa_atexit(void (i8*)* bitcast (void (%"class.std::ios_base::Init"*)* @_ZNSt8ios_base4InitD1Ev to void (i8*)*), i8* getelementptr inbounds (%"class.std::ios_base::Init", %"class.std::ios_base::Init"* @_ZStL8__ioinit, i32 0, i32 0), i8* @__dso_handle) #3
  ret void
}

declare dso_local void @_ZNSt8ios_base4InitC1Ev(%"class.std::ios_base::Init"*) unnamed_addr #1

; Function Attrs: nounwind
declare dso_local void @_ZNSt8ios_base4InitD1Ev(%"class.std::ios_base::Init"*) unnamed_addr #2

; Function Attrs: nounwind
declare dso_local i32 @__cxa_atexit(void (i8*)*, i8*, i8*) #3

; Function Attrs: noinline norecurse uwtable
define dso_local i32 @main() #4 {
  %1 = alloca i32, align 4
  %2 = alloca i32, align 4
  %3 = alloca i32, align 4
  %4 = alloca i8*, align 8
  %5 = alloca i64, align 8
  %6 = alloca i32, align 4
  %7 = alloca [101 x i32], align 16
  %8 = alloca i32, align 4
  %9 = alloca i32, align 4
  store i32 0, i32* %1, align 4
  %10 = call dereferenceable(280) %"class.std::basic_istream"* @_ZNSirsERi(%"class.std::basic_istream"* @_ZSt3cin, i32* dereferenceable(4) %2)
  %11 = load i32, i32* %2, align 4
  %12 = zext i32 %11 to i64
  %13 = call i8* @llvm.stacksave()
  store i8* %13, i8** %4, align 8
  %14 = alloca i32, i64 %12, align 16
  store i64 %12, i64* %5, align 8
  store i32 0, i32* %6, align 4
  br label %15

15:                                               ; preds = %24, %0
  %16 = load i32, i32* %6, align 4
  %17 = load i32, i32* %2, align 4
  %18 = icmp slt i32 %16, %17
  br i1 %18, label %19, label %27

19:                                               ; preds = %15
  %20 = load i32, i32* %6, align 4
  %21 = sext i32 %20 to i64
  %22 = getelementptr inbounds i32, i32* %14, i64 %21
  %23 = call dereferenceable(280) %"class.std::basic_istream"* @_ZNSirsERi(%"class.std::basic_istream"* @_ZSt3cin, i32* dereferenceable(4) %22)
  br label %24

24:                                               ; preds = %19
  %25 = load i32, i32* %6, align 4
  %26 = add nsw i32 %25, 1
  store i32 %26, i32* %6, align 4
  br label %15

27:                                               ; preds = %15
  %28 = bitcast [101 x i32]* %7 to i8*
  call void @llvm.memset.p0i8.i64(i8* align 16 %28, i8 0, i64 404, i1 false)
  store i32 0, i32* %8, align 4
  br label %29

29:                                               ; preds = %55, %27
  %30 = load i32, i32* %8, align 4
  %31 = load i32, i32* %2, align 4
  %32 = icmp slt i32 %30, %31
  br i1 %32, label %33, label %58

33:                                               ; preds = %29
  %34 = load i32, i32* %8, align 4
  %35 = sext i32 %34 to i64
  %36 = getelementptr inbounds i32, i32* %14, i64 %35
  %37 = load i32, i32* %36, align 4
  %38 = sext i32 %37 to i64
  %39 = getelementptr inbounds [101 x i32], [101 x i32]* %7, i64 0, i64 %38
  %40 = load i32, i32* %39, align 4
  %41 = add nsw i32 %40, 1
  store i32 %41, i32* %39, align 4
  %42 = load i32, i32* %8, align 4
  %43 = sext i32 %42 to i64
  %44 = getelementptr inbounds i32, i32* %14, i64 %43
  %45 = load i32, i32* %44, align 4
  %46 = sext i32 %45 to i64
  %47 = getelementptr inbounds [101 x i32], [101 x i32]* %7, i64 0, i64 %46
  %48 = load i32, i32* %47, align 4
  %49 = icmp sge i32 %48, 2
  br i1 %49, label %50, label %54

50:                                               ; preds = %33
  %51 = load i32, i32* %8, align 4
  %52 = sext i32 %51 to i64
  %53 = getelementptr inbounds i32, i32* %14, i64 %52
  store i32 0, i32* %53, align 4
  br label %54

54:                                               ; preds = %50, %33
  br label %55

55:                                               ; preds = %54
  %56 = load i32, i32* %8, align 4
  %57 = add nsw i32 %56, 1
  store i32 %57, i32* %8, align 4
  br label %29

58:                                               ; preds = %29
  store i32 0, i32* %9, align 4
  br label %59

59:                                               ; preds = %87, %58
  %60 = load i32, i32* %9, align 4
  %61 = load i32, i32* %2, align 4
  %62 = icmp slt i32 %60, %61
  br i1 %62, label %63, label %90

63:                                               ; preds = %59
  %64 = load i32, i32* %9, align 4
  %65 = icmp eq i32 %64, 0
  br i1 %65, label %66, label %72

66:                                               ; preds = %63
  %67 = load i32, i32* %9, align 4
  %68 = sext i32 %67 to i64
  %69 = getelementptr inbounds i32, i32* %14, i64 %68
  %70 = load i32, i32* %69, align 4
  %71 = call dereferenceable(272) %"class.std::basic_ostream"* @_ZNSolsEi(%"class.std::basic_ostream"* @_ZSt4cout, i32 %70)
  br label %86

72:                                               ; preds = %63
  %73 = load i32, i32* %9, align 4
  %74 = sext i32 %73 to i64
  %75 = getelementptr inbounds i32, i32* %14, i64 %74
  %76 = load i32, i32* %75, align 4
  %77 = icmp ne i32 %76, 0
  br i1 %77, label %78, label %85

78:                                               ; preds = %72
  %79 = call dereferenceable(272) %"class.std::basic_ostream"* @_ZStlsISt11char_traitsIcEERSt13basic_ostreamIcT_ES5_PKc(%"class.std::basic_ostream"* dereferenceable(272) @_ZSt4cout, i8* getelementptr inbounds ([2 x i8], [2 x i8]* @.str, i64 0, i64 0))
  %80 = load i32, i32* %9, align 4
  %81 = sext i32 %80 to i64
  %82 = getelementptr inbounds i32, i32* %14, i64 %81
  %83 = load i32, i32* %82, align 4
  %84 = call dereferenceable(272) %"class.std::basic_ostream"* @_ZNSolsEi(%"class.std::basic_ostream"* %79, i32 %83)
  br label %85

85:                                               ; preds = %78, %72
  br label %86

86:                                               ; preds = %85, %66
  br label %87

87:                                               ; preds = %86
  %88 = load i32, i32* %9, align 4
  %89 = add nsw i32 %88, 1
  store i32 %89, i32* %9, align 4
  br label %59

90:                                               ; preds = %59
  store i32 0, i32* %1, align 4
  %91 = load i8*, i8** %4, align 8
  call void @llvm.stackrestore(i8* %91)
  %92 = load i32, i32* %1, align 4
  ret i32 %92
}

declare dso_local dereferenceable(280) %"class.std::basic_istream"* @_ZNSirsERi(%"class.std::basic_istream"*, i32* dereferenceable(4)) #1

; Function Attrs: nounwind
declare i8* @llvm.stacksave() #3

; Function Attrs: argmemonly nounwind willreturn
declare void @llvm.memset.p0i8.i64(i8* nocapture writeonly, i8, i64, i1 immarg) #5

declare dso_local dereferenceable(272) %"class.std::basic_ostream"* @_ZNSolsEi(%"class.std::basic_ostream"*, i32) #1

declare dso_local dereferenceable(272) %"class.std::basic_ostream"* @_ZStlsISt11char_traitsIcEERSt13basic_ostreamIcT_ES5_PKc(%"class.std::basic_ostream"* dereferenceable(272), i8*) #1

; Function Attrs: nounwind
declare void @llvm.stackrestore(i8*) #3

; Function Attrs: noinline uwtable
define internal void @_GLOBAL__sub_I_868.cpp() #0 section ".text.startup" {
  call void @__cxx_global_var_init()
  ret void
}


!llvm.module.flags = !{!0}
!llvm.ident = !{!1}

!0 = !{i32 1, !"wchar_size", i32 4}
!1 = !{!"clang version 10.0.0-4ubuntu1 "}
